(i__main__
person
p0
(dp1
S'age'
p2
I1
sS'lOfFriends'
p3
(lp4
(S'asghar'
p5
S'ali'
p6
tp7
asS'name'
p8
S'behzad'
p9
sb.(i__main__
person
p0
(dp1
S'age'
p2
I10
sS'lOfFriends'
p3
(lp4
(S'negar'
p5
S'huray'
p6
tp7
asS'name'
p8
S'molly'
p9
sb.